; ModuleID = 'source-C-CXX/27/134.c'
source_filename = "source-C-CXX/27/134.c"
target datalayout = "e-m:e-p270:32:32-p271:32:32-p272:64:64-i64:64-f80:128-n8:16:32:64-S128"
target triple = "x86_64-pc-linux-gnu"

@.str = private unnamed_addr constant [3 x i8] c"%d\00", align 1
@.str.1 = private unnamed_addr constant [4 x i8] c",%d\00", align 1

; Function Attrs: nounwind sspstrong uwtable
define dso_local void @main() local_unnamed_addr #0 {
  %1 = alloca [100 x i32], align 16
  %2 = alloca [1000 x i8], align 16
  %3 = bitcast [100 x i32]* %1 to i8*
  call void @llvm.lifetime.start.p0i8(i64 400, i8* nonnull %3) #5
  call void @llvm.memset.p0i8.i64(i8* noundef nonnull align 16 dereferenceable(400) %3, i8 0, i64 400, i1 false)
  %4 = getelementptr inbounds [1000 x i8], [1000 x i8]* %2, i64 0, i64 0
  call void @llvm.lifetime.start.p0i8(i64 1000, i8* nonnull %4) #5
  %5 = call i32 (i8*, ...) bitcast (i32 (...)* @gets to i32 (i8*, ...)*)(i8* nonnull %4) #5
  br label %6

6:                                                ; preds = %15, %0
  %7 = phi i64 [ %20, %15 ], [ 0, %0 ]
  %8 = phi i32 [ %25, %15 ], [ 0, %0 ]
  br label %9

9:                                                ; preds = %6, %13
  %10 = phi i64 [ %14, %13 ], [ %7, %6 ]
  %11 = getelementptr inbounds [1000 x i8], [1000 x i8]* %2, i64 0, i64 %10
  %12 = load i8, i8* %11, align 1, !tbaa !5
  switch i8 %12, label %15 [
    i8 0, label %26
    i8 32, label %13
  ]

13:                                               ; preds = %9
  %14 = add nuw i64 %10, 1
  br label %9, !llvm.loop !8

15:                                               ; preds = %9
  %16 = zext i32 %8 to i64
  %17 = getelementptr inbounds [100 x i32], [100 x i32]* %1, i64 0, i64 %16
  %18 = load i32, i32* %17, align 4, !tbaa !10
  %19 = add nsw i32 %18, 1
  store i32 %19, i32* %17, align 4, !tbaa !10
  %20 = add nuw i64 %10, 1
  %21 = getelementptr inbounds [1000 x i8], [1000 x i8]* %2, i64 0, i64 %20
  %22 = load i8, i8* %21, align 1, !tbaa !5
  %23 = icmp eq i8 %22, 32
  %24 = zext i1 %23 to i32
  %25 = add nuw nsw i32 %8, %24
  br label %6, !llvm.loop !8

26:                                               ; preds = %9
  %27 = getelementptr inbounds [100 x i32], [100 x i32]* %1, i64 0, i64 0
  %28 = load i32, i32* %27, align 16, !tbaa !10
  %29 = call i32 (i8*, ...) @printf(i8* nonnull dereferenceable(1) getelementptr inbounds ([3 x i8], [3 x i8]* @.str, i64 0, i64 0), i32 %28)
  %30 = icmp eq i32 %8, 0
  br i1 %30, label %41, label %31

31:                                               ; preds = %26
  %32 = add nuw i32 %8, 1
  %33 = zext i32 %32 to i64
  br label %34

34:                                               ; preds = %31, %34
  %35 = phi i64 [ 1, %31 ], [ %39, %34 ]
  %36 = getelementptr inbounds [100 x i32], [100 x i32]* %1, i64 0, i64 %35
  %37 = load i32, i32* %36, align 4, !tbaa !10
  %38 = call i32 (i8*, ...) @printf(i8* nonnull dereferenceable(1) getelementptr inbounds ([4 x i8], [4 x i8]* @.str.1, i64 0, i64 0), i32 %37)
  %39 = add nuw nsw i64 %35, 1
  %40 = icmp eq i64 %39, %33
  br i1 %40, label %41, label %34, !llvm.loop !12

41:                                               ; preds = %34, %26
  call void @llvm.lifetime.end.p0i8(i64 1000, i8* nonnull %4) #5
  call void @llvm.lifetime.end.p0i8(i64 400, i8* nonnull %3) #5
  ret void
}

; Function Attrs: argmemonly mustprogress nofree nosync nounwind willreturn
declare void @llvm.lifetime.start.p0i8(i64 immarg, i8* nocapture) #1

; Function Attrs: argmemonly mustprogress nofree nounwind willreturn writeonly
declare void @llvm.memset.p0i8.i64(i8* nocapture writeonly, i8, i64, i1 immarg) #2

declare i32 @gets(...) local_unnamed_addr #3

; Function Attrs: nofree nounwind
declare noundef i32 @printf(i8* nocapture noundef readonly, ...) local_unnamed_addr #4

; Function Attrs: argmemonly mustprogress nofree nosync nounwind willreturn
declare void @llvm.lifetime.end.p0i8(i64 immarg, i8* nocapture) #1


!llvm.module.flags = !{!0, !1, !2, !3}
!llvm.ident = !{!4}

!0 = !{i32 1, !"wchar_size", i32 4}
!1 = !{i32 7, !"PIC Level", i32 2}
!2 = !{i32 7, !"PIE Level", i32 2}
!3 = !{i32 7, !"uwtable", i32 1}
!4 = !{!"clang version 13.0.0"}
!5 = !{!6, !6, i64 0}
!6 = !{!"omnipotent char", !7, i64 0}
!7 = !{!"Simple C/C++ TBAA"}
!8 = distinct !{!8, !9}
!9 = !{!"llvm.loop.mustprogress"}
!10 = !{!11, !11, i64 0}
!11 = !{!"int", !6, i64 0}
!12 = distinct !{!12, !9}
